; ModuleID = '39/655.c'
source_filename = "39/655.c"
target datalayout = "e-m:e-p270:32:32-p271:32:32-p272:64:64-i64:64-f80:128-n8:16:32:64-S128"
target triple = "x86_64-pc-linux-gnu"

%struct.student = type { [21 x i8], i32, i32, i8, i8, i32 }

@stu = common dso_local global [120 x %struct.student] zeroinitializer, align 16
@.str = private unnamed_addr constant [3 x i8] c"%d\00", align 1
@.str.1 = private unnamed_addr constant [18 x i8] c"%s %d %d %c %c %d\00", align 1
@.str.2 = private unnamed_addr constant [9 x i8] c"%s\0A%d\0A%d\00", align 1

; Function Attrs: noinline nounwind uwtable
define dso_local i32 @main() #0 {
  %1 = alloca i32, align 4
  %2 = alloca i32, align 4
  %3 = alloca i32, align 4
  %4 = alloca %struct.student*, align 8
  store i32 0, i32* %1, align 4
  store %struct.student* getelementptr inbounds ([120 x %struct.student], [120 x %struct.student]* @stu, i64 0, i64 0), %struct.student** %4, align 8
  %5 = call i32 (i8*, ...) @__isoc99_scanf(i8* getelementptr inbounds ([3 x i8], [3 x i8]* @.str, i64 0, i64 0), i32* %2)
  store i32 0, i32* %3, align 4
  br label %6

6:                                                ; preds = %36, %0
  %7 = load i32, i32* %3, align 4
  %8 = load i32, i32* %2, align 4
  %9 = icmp slt i32 %7, %8
  br i1 %9, label %10, label %39

10:                                               ; preds = %6
  %11 = load i32, i32* %3, align 4
  %12 = sext i32 %11 to i64
  %13 = getelementptr inbounds [120 x %struct.student], [120 x %struct.student]* @stu, i64 0, i64 %12
  %14 = getelementptr inbounds %struct.student, %struct.student* %13, i32 0, i32 0
  %15 = load i32, i32* %3, align 4
  %16 = sext i32 %15 to i64
  %17 = getelementptr inbounds [120 x %struct.student], [120 x %struct.student]* @stu, i64 0, i64 %16
  %18 = getelementptr inbounds %struct.student, %struct.student* %17, i32 0, i32 1
  %19 = load i32, i32* %3, align 4
  %20 = sext i32 %19 to i64
  %21 = getelementptr inbounds [120 x %struct.student], [120 x %struct.student]* @stu, i64 0, i64 %20
  %22 = getelementptr inbounds %struct.student, %struct.student* %21, i32 0, i32 2
  %23 = load i32, i32* %3, align 4
  %24 = sext i32 %23 to i64
  %25 = getelementptr inbounds [120 x %struct.student], [120 x %struct.student]* @stu, i64 0, i64 %24
  %26 = getelementptr inbounds %struct.student, %struct.student* %25, i32 0, i32 3
  %27 = load i32, i32* %3, align 4
  %28 = sext i32 %27 to i64
  %29 = getelementptr inbounds [120 x %struct.student], [120 x %struct.student]* @stu, i64 0, i64 %28
  %30 = getelementptr inbounds %struct.student, %struct.student* %29, i32 0, i32 4
  %31 = load i32, i32* %3, align 4
  %32 = sext i32 %31 to i64
  %33 = getelementptr inbounds [120 x %struct.student], [120 x %struct.student]* @stu, i64 0, i64 %32
  %34 = getelementptr inbounds %struct.student, %struct.student* %33, i32 0, i32 5
  %35 = call i32 (i8*, ...) @__isoc99_scanf(i8* getelementptr inbounds ([18 x i8], [18 x i8]* @.str.1, i64 0, i64 0), [21 x i8]* %14, i32* %18, i32* %22, i8* %26, i8* %30, i32* %34)
  br label %36

36:                                               ; preds = %10
  %37 = load i32, i32* %3, align 4
  %38 = add nsw i32 %37, 1
  store i32 %38, i32* %3, align 4
  br label %6

39:                                               ; preds = %6
  %40 = load %struct.student*, %struct.student** %4, align 8
  %41 = load i32, i32* %2, align 4
  call void @scholar(%struct.student* %40, i32 %41)
  ret i32 0
}

declare dso_local i32 @__isoc99_scanf(i8*, ...) #1

; Function Attrs: noinline nounwind uwtable
define dso_local void @scholar(%struct.student* %0, i32 %1) #0 {
  %3 = alloca %struct.student*, align 8
  %4 = alloca i32, align 4
  %5 = alloca i32, align 4
  %6 = alloca i32, align 4
  %7 = alloca i32, align 4
  %8 = alloca i32, align 4
  %9 = alloca i32, align 4
  store %struct.student* %0, %struct.student** %3, align 8
  store i32 %1, i32* %4, align 4
  store i32 0, i32* %6, align 4
  store i32 0, i32* %7, align 4
  store i32 0, i32* %9, align 4
  store i32 0, i32* %8, align 4
  br label %10

10:                                               ; preds = %114, %2
  %11 = load i32, i32* %8, align 4
  %12 = load i32, i32* %4, align 4
  %13 = icmp slt i32 %11, %12
  br i1 %13, label %14, label %117

14:                                               ; preds = %10
  store i32 0, i32* %5, align 4
  %15 = load %struct.student*, %struct.student** %3, align 8
  %16 = load i32, i32* %8, align 4
  %17 = sext i32 %16 to i64
  %18 = getelementptr inbounds %struct.student, %struct.student* %15, i64 %17
  %19 = getelementptr inbounds %struct.student, %struct.student* %18, i32 0, i32 1
  %20 = load i32, i32* %19, align 4
  %21 = icmp sgt i32 %20, 80
  br i1 %21, label %22, label %33

22:                                               ; preds = %14
  %23 = load %struct.student*, %struct.student** %3, align 8
  %24 = load i32, i32* %8, align 4
  %25 = sext i32 %24 to i64
  %26 = getelementptr inbounds %struct.student, %struct.student* %23, i64 %25
  %27 = getelementptr inbounds %struct.student, %struct.student* %26, i32 0, i32 5
  %28 = load i32, i32* %27, align 4
  %29 = icmp sgt i32 %28, 0
  br i1 %29, label %30, label %33

30:                                               ; preds = %22
  %31 = load i32, i32* %5, align 4
  %32 = add nsw i32 %31, 8000
  store i32 %32, i32* %5, align 4
  br label %33

33:                                               ; preds = %30, %22, %14
  %34 = load %struct.student*, %struct.student** %3, align 8
  %35 = load i32, i32* %8, align 4
  %36 = sext i32 %35 to i64
  %37 = getelementptr inbounds %struct.student, %struct.student* %34, i64 %36
  %38 = getelementptr inbounds %struct.student, %struct.student* %37, i32 0, i32 1
  %39 = load i32, i32* %38, align 4
  %40 = icmp sgt i32 %39, 85
  br i1 %40, label %41, label %52

41:                                               ; preds = %33
  %42 = load %struct.student*, %struct.student** %3, align 8
  %43 = load i32, i32* %8, align 4
  %44 = sext i32 %43 to i64
  %45 = getelementptr inbounds %struct.student, %struct.student* %42, i64 %44
  %46 = getelementptr inbounds %struct.student, %struct.student* %45, i32 0, i32 2
  %47 = load i32, i32* %46, align 4
  %48 = icmp sgt i32 %47, 80
  br i1 %48, label %49, label %52

49:                                               ; preds = %41
  %50 = load i32, i32* %5, align 4
  %51 = add nsw i32 %50, 4000
  store i32 %51, i32* %5, align 4
  br label %52

52:                                               ; preds = %49, %41, %33
  %53 = load %struct.student*, %struct.student** %3, align 8
  %54 = load i32, i32* %8, align 4
  %55 = sext i32 %54 to i64
  %56 = getelementptr inbounds %struct.student, %struct.student* %53, i64 %55
  %57 = getelementptr inbounds %struct.student, %struct.student* %56, i32 0, i32 1
  %58 = load i32, i32* %57, align 4
  %59 = icmp sgt i32 %58, 90
  br i1 %59, label %60, label %63

60:                                               ; preds = %52
  %61 = load i32, i32* %5, align 4
  %62 = add nsw i32 %61, 2000
  store i32 %62, i32* %5, align 4
  br label %63

63:                                               ; preds = %60, %52
  %64 = load %struct.student*, %struct.student** %3, align 8
  %65 = load i32, i32* %8, align 4
  %66 = sext i32 %65 to i64
  %67 = getelementptr inbounds %struct.student, %struct.student* %64, i64 %66
  %68 = getelementptr inbounds %struct.student, %struct.student* %67, i32 0, i32 1
  %69 = load i32, i32* %68, align 4
  %70 = icmp sgt i32 %69, 85
  br i1 %70, label %71, label %83

71:                                               ; preds = %63
  %72 = load %struct.student*, %struct.student** %3, align 8
  %73 = load i32, i32* %8, align 4
  %74 = sext i32 %73 to i64
  %75 = getelementptr inbounds %struct.student, %struct.student* %72, i64 %74
  %76 = getelementptr inbounds %struct.student, %struct.student* %75, i32 0, i32 4
  %77 = load i8, i8* %76, align 1
  %78 = sext i8 %77 to i32
  %79 = icmp eq i32 %78, 89
  br i1 %79, label %80, label %83

80:                                               ; preds = %71
  %81 = load i32, i32* %5, align 4
  %82 = add nsw i32 %81, 1000
  store i32 %82, i32* %5, align 4
  br label %83

83:                                               ; preds = %80, %71, %63
  %84 = load %struct.student*, %struct.student** %3, align 8
  %85 = load i32, i32* %8, align 4
  %86 = sext i32 %85 to i64
  %87 = getelementptr inbounds %struct.student, %struct.student* %84, i64 %86
  %88 = getelementptr inbounds %struct.student, %struct.student* %87, i32 0, i32 2
  %89 = load i32, i32* %88, align 4
  %90 = icmp sgt i32 %89, 80
  br i1 %90, label %91, label %103

91:                                               ; preds = %83
  %92 = load %struct.student*, %struct.student** %3, align 8
  %93 = load i32, i32* %8, align 4
  %94 = sext i32 %93 to i64
  %95 = getelementptr inbounds %struct.student, %struct.student* %92, i64 %94
  %96 = getelementptr inbounds %struct.student, %struct.student* %95, i32 0, i32 3
  %97 = load i8, i8* %96, align 4
  %98 = sext i8 %97 to i32
  %99 = icmp eq i32 %98, 89
  br i1 %99, label %100, label %103

100:                                              ; preds = %91
  %101 = load i32, i32* %5, align 4
  %102 = add nsw i32 %101, 850
  store i32 %102, i32* %5, align 4
  br label %103

103:                                              ; preds = %100, %91, %83
  %104 = load i32, i32* %5, align 4
  %105 = load i32, i32* %6, align 4
  %106 = add nsw i32 %105, %104
  store i32 %106, i32* %6, align 4
  %107 = load i32, i32* %5, align 4
  %108 = load i32, i32* %7, align 4
  %109 = icmp sgt i32 %107, %108
  br i1 %109, label %110, label %113

110:                                              ; preds = %103
  %111 = load i32, i32* %5, align 4
  store i32 %111, i32* %7, align 4
  %112 = load i32, i32* %8, align 4
  store i32 %112, i32* %9, align 4
  br label %113

113:                                              ; preds = %110, %103
  br label %114

114:                                              ; preds = %113
  %115 = load i32, i32* %8, align 4
  %116 = add nsw i32 %115, 1
  store i32 %116, i32* %8, align 4
  br label %10

117:                                              ; preds = %10
  %118 = load %struct.student*, %struct.student** %3, align 8
  %119 = load i32, i32* %9, align 4
  %120 = sext i32 %119 to i64
  %121 = getelementptr inbounds %struct.student, %struct.student* %118, i64 %120
  %122 = getelementptr inbounds %struct.student, %struct.student* %121, i32 0, i32 0
  %123 = getelementptr inbounds [21 x i8], [21 x i8]* %122, i64 0, i64 0
  %124 = load i32, i32* %7, align 4
  %125 = load i32, i32* %6, align 4
  %126 = call i32 (i8*, ...) @printf(i8* getelementptr inbounds ([9 x i8], [9 x i8]* @.str.2, i64 0, i64 0), i8* %123, i32 %124, i32 %125)
  ret void
}

declare dso_local i32 @printf(i8*, ...) #1


!llvm.module.flags = !{!0}
!llvm.ident = !{!1}

!0 = !{i32 1, !"wchar_size", i32 4}
!1 = !{!"clang version 10.0.0-4ubuntu1 "}
